; Function Attrs: mustprogress nounwind uwtable
define void @_ZN3gmx23KeyValueTreeTransformerD2Ev(ptr nocapture noundef nonnull align 8 dereferenceable(8) %0) unnamed_addr #6 align 2 personality ptr @__gxx_personality_v0 {
  %2 = load ptr, ptr %0, align 8
  %.not.i = icmp eq ptr %2, null
  br i1 %.not.i, label %_ZNSt10unique_ptrIN3gmx8internal27KeyValueTreeTransformerImplESt14default_deleteIS2_EED2Ev.exit, label %3

3:                                                ; preds = %1
  %4 = getelementptr inbounds i8, ptr %2, i64 8
  tail call void @_ZN3gmx32KeyValueTreeTransformRulesScopedD1Ev(ptr noundef nonnull align 8 dereferenceable(8) %4) #26
  %5 = load ptr, ptr %2, align 8
  %.not.i.i.i.i = icmp eq ptr %5, null
  br i1 %.not.i.i.i.i, label %_ZNKSt14default_deleteIN3gmx8internal27KeyValueTreeTransformerImplEEclEPS2_.exit.i, label %_ZNKSt14default_deleteIN3gmx8internal27KeyValueTreeTransformerImpl4RuleEEclEPS3_.exit.i.i.i.i

_ZNKSt14default_deleteIN3gmx8internal27KeyValueTreeTransformerImpl4RuleEEclEPS3_.exit.i.i.i.i: ; preds = %3
  tail call void @_ZN3gmx8internal27KeyValueTreeTransformerImpl4RuleD2Ev(ptr noundef nonnull align 8 dereferenceable(144) %5) #26
  tail call void @_ZdlPv(ptr noundef nonnull %5) #25
  br label %_ZNKSt14default_deleteIN3gmx8internal27KeyValueTreeTransformerImplEEclEPS2_.exit.i

_ZNKSt14default_deleteIN3gmx8internal27KeyValueTreeTransformerImplEEclEPS2_.exit.i: ; preds = %_ZNKSt14default_deleteIN3gmx8internal27KeyValueTreeTransformerImpl4RuleEEclEPS3_.exit.i.i.i.i, %3
  tail call void @_ZdlPv(ptr noundef nonnull %2) #25
  br label %_ZNSt10unique_ptrIN3gmx8internal27KeyValueTreeTransformerImplESt14default_deleteIS2_EED2Ev.exit

_ZNSt10unique_ptrIN3gmx8internal27KeyValueTreeTransformerImplESt14default_deleteIS2_EED2Ev.exit: ; preds = %1, %_ZNKSt14default_deleteIN3gmx8internal27KeyValueTreeTransformerImplEEclEPS2_.exit.i
  store ptr null, ptr %0, align 8
  ret void
}